target datalayout = "e-m:e-p270:32:32-p271:32:32-p272:64:64-i64:64-i128:128-f80:128-n8:16:32:64-S128"
target triple = "x86_64-unknown-linux-gnu"

%struct.MACAddr = type { [6 x i8] }

; Function Attrs: nounwind sspstrong uwtable
define internal void @set_mac(ptr noundef %obj, ptr noundef %v, ptr noundef %name, ptr noundef %opaque, ptr noundef %errp) #0 {
entry:
  %obj.addr = alloca ptr, align 8
  %v.addr = alloca ptr, align 8
  %name.addr = alloca ptr, align 8
  %opaque.addr = alloca ptr, align 8
  %errp.addr = alloca ptr, align 8
  %prop = alloca ptr, align 8
  %mac = alloca ptr, align 8
  %i = alloca i32, align 4
  %pos = alloca i32, align 4
  %str = alloca ptr, align 8
  %p = alloca ptr, align 8
  %val = alloca i64, align 8
  store ptr %obj, ptr %obj.addr, align 8
  store ptr %v, ptr %v.addr, align 8
  store ptr %name, ptr %name.addr, align 8
  store ptr %opaque, ptr %opaque.addr, align 8
  store ptr %errp, ptr %errp.addr, align 8
  %0 = load ptr, ptr %opaque.addr, align 8
  store ptr %0, ptr %prop, align 8
  %1 = load ptr, ptr %obj.addr, align 8
  %2 = load ptr, ptr %prop, align 8
  %call = call ptr @object_field_prop_ptr(ptr noundef %1, ptr noundef %2)
  store ptr %call, ptr %mac, align 8
  %3 = load ptr, ptr %v.addr, align 8
  %4 = load ptr, ptr %name.addr, align 8
  %5 = load ptr, ptr %errp.addr, align 8
  %call1 = call zeroext i1 @visit_type_str(ptr noundef %3, ptr noundef %4, ptr noundef %str, ptr noundef %5)
  br i1 %call1, label %if.end, label %if.then

if.then:                                          ; preds = %entry
  br label %return

if.end:                                           ; preds = %entry
  store i32 0, ptr %i, align 4
  store i32 0, ptr %pos, align 4
  br label %for.cond

for.cond:                                         ; preds = %for.inc, %if.end
  %6 = load i32, ptr %i, align 4
  %cmp = icmp slt i32 %6, 6
  br i1 %cmp, label %for.body, label %for.end

for.body:                                         ; preds = %for.cond
  %call2 = call ptr @__ctype_b_loc() #8
  %7 = load ptr, ptr %call2, align 8
  %8 = load ptr, ptr %str, align 8
  %9 = load i32, ptr %pos, align 4
  %idxprom = sext i32 %9 to i64
  %arrayidx = getelementptr i8, ptr %8, i64 %idxprom
  %10 = load i8, ptr %arrayidx, align 1
  %conv = zext i8 %10 to i32
  %idxprom3 = sext i32 %conv to i64
  %arrayidx4 = getelementptr i16, ptr %7, i64 %idxprom3
  %11 = load i16, ptr %arrayidx4, align 2
  %conv5 = zext i16 %11 to i32
  %and = and i32 %conv5, 4096
  %tobool = icmp ne i32 %and, 0
  br i1 %tobool, label %if.end7, label %if.then6

if.then6:                                         ; preds = %for.body
  br label %inval

if.end7:                                          ; preds = %for.body
  %call8 = call ptr @__ctype_b_loc() #8
  %12 = load ptr, ptr %call8, align 8
  %13 = load ptr, ptr %str, align 8
  %14 = load i32, ptr %pos, align 4
  %add = add i32 %14, 1
  %idxprom9 = sext i32 %add to i64
  %arrayidx10 = getelementptr i8, ptr %13, i64 %idxprom9
  %15 = load i8, ptr %arrayidx10, align 1
  %conv11 = zext i8 %15 to i32
  %idxprom12 = sext i32 %conv11 to i64
  %arrayidx13 = getelementptr i16, ptr %12, i64 %idxprom12
  %16 = load i16, ptr %arrayidx13, align 2
  %conv14 = zext i16 %16 to i32
  %and15 = and i32 %conv14, 4096
  %tobool16 = icmp ne i32 %and15, 0
  br i1 %tobool16, label %if.end18, label %if.then17

if.then17:                                        ; preds = %if.end7
  br label %inval

if.end18:                                         ; preds = %if.end7
  %17 = load i32, ptr %i, align 4
  %cmp19 = icmp eq i32 %17, 5
  br i1 %cmp19, label %if.then21, label %if.else

if.then21:                                        ; preds = %if.end18
  %18 = load ptr, ptr %str, align 8
  %19 = load i32, ptr %pos, align 4
  %add22 = add i32 %19, 2
  %idxprom23 = sext i32 %add22 to i64
  %arrayidx24 = getelementptr i8, ptr %18, i64 %idxprom23
  %20 = load i8, ptr %arrayidx24, align 1
  %conv25 = sext i8 %20 to i32
  %cmp26 = icmp ne i32 %conv25, 0
  br i1 %cmp26, label %if.then28, label %if.end29

if.then28:                                        ; preds = %if.then21
  br label %inval

if.end29:                                         ; preds = %if.then21
  br label %if.end44

if.else:                                          ; preds = %if.end18
  %21 = load ptr, ptr %str, align 8
  %22 = load i32, ptr %pos, align 4
  %add30 = add i32 %22, 2
  %idxprom31 = sext i32 %add30 to i64
  %arrayidx32 = getelementptr i8, ptr %21, i64 %idxprom31
  %23 = load i8, ptr %arrayidx32, align 1
  %conv33 = sext i8 %23 to i32
  %cmp34 = icmp ne i32 %conv33, 58
  br i1 %cmp34, label %land.lhs.true, label %if.end43

land.lhs.true:                                    ; preds = %if.else
  %24 = load ptr, ptr %str, align 8
  %25 = load i32, ptr %pos, align 4
  %add36 = add i32 %25, 2
  %idxprom37 = sext i32 %add36 to i64
  %arrayidx38 = getelementptr i8, ptr %24, i64 %idxprom37
  %26 = load i8, ptr %arrayidx38, align 1
  %conv39 = sext i8 %26 to i32
  %cmp40 = icmp ne i32 %conv39, 45
  br i1 %cmp40, label %if.then42, label %if.end43

if.then42:                                        ; preds = %land.lhs.true
  br label %inval

if.end43:                                         ; preds = %land.lhs.true, %if.else
  br label %if.end44

if.end44:                                         ; preds = %if.end43, %if.end29
  %27 = load ptr, ptr %str, align 8
  %28 = load i32, ptr %pos, align 4
  %idx.ext = sext i32 %28 to i64
  %add.ptr = getelementptr i8, ptr %27, i64 %idx.ext
  %call45 = call i32 @qemu_strtol(ptr noundef %add.ptr, ptr noundef %p, i32 noundef 16, ptr noundef %val)
  %cmp46 = icmp slt i32 %call45, 0
  br i1 %cmp46, label %if.then50, label %lor.lhs.false

lor.lhs.false:                                    ; preds = %if.end44
  %29 = load i64, ptr %val, align 8
  %cmp48 = icmp sgt i64 %29, 255
  br i1 %cmp48, label %if.then50, label %if.end51

if.then50:                                        ; preds = %lor.lhs.false, %if.end44
  br label %inval

if.end51:                                         ; preds = %lor.lhs.false
  %30 = load i64, ptr %val, align 8
  %conv52 = trunc i64 %30 to i8
  %31 = load ptr, ptr %mac, align 8
  %a = getelementptr inbounds %struct.MACAddr, ptr %31, i32 0, i32 0
  %32 = load i32, ptr %i, align 4
  %idxprom53 = sext i32 %32 to i64
  %arrayidx54 = getelementptr [6 x i8], ptr %a, i64 0, i64 %idxprom53
  store i8 %conv52, ptr %arrayidx54, align 1
  br label %for.inc

for.inc:                                          ; preds = %if.end51
  %33 = load i32, ptr %i, align 4
  %inc = add i32 %33, 1
  store i32 %inc, ptr %i, align 4
  %34 = load i32, ptr %pos, align 4
  %add55 = add i32 %34, 3
  store i32 %add55, ptr %pos, align 4
  br label %for.cond, !llvm.loop !5

for.end:                                          ; preds = %for.cond
  %35 = load ptr, ptr %str, align 8
  call void @g_free(ptr noundef %35)
  br label %return

inval:                                            ; preds = %if.then50, %if.then42, %if.then28, %if.then17, %if.then6
  %36 = load ptr, ptr %errp.addr, align 8
  %37 = load ptr, ptr %obj.addr, align 8
  %38 = load ptr, ptr %name.addr, align 8
  %39 = load ptr, ptr %str, align 8
  call void @error_set_from_qdev_prop_error(ptr noundef %36, i32 noundef 22, ptr noundef %37, ptr noundef %38, ptr noundef %39)
  %40 = load ptr, ptr %str, align 8
  call void @g_free(ptr noundef %40)
  br label %return

return:                                           ; preds = %inval, %for.end, %if.then
  ret void
}