; Function Attrs: nounwind sspstrong uwtable
define internal void @set_mac(ptr noundef %obj, ptr noundef %v, ptr noundef %name, ptr noundef %opaque, ptr noundef %errp) #0 {
entry:
  %str = alloca ptr, align 8
  %p = alloca ptr, align 8
  %val = alloca i64, align 8
  %call = tail call ptr @object_field_prop_ptr(ptr noundef %obj, ptr noundef %opaque) #10
  %call1 = call zeroext i1 @visit_type_str(ptr noundef %v, ptr noundef %name, ptr noundef nonnull %str, ptr noundef %errp) #10
  br i1 %call1, label %for.cond.preheader, label %return

for.cond.preheader:                               ; preds = %entry
  %call2 = tail call ptr @__ctype_b_loc() #11
  br label %for.body

for.body:                                         ; preds = %for.cond.preheader, %if.end51
  %indvars.iv = phi i64 [ 0, %for.cond.preheader ], [ %indvars.iv.next, %if.end51 ]
  %pos.014 = phi i32 [ 0, %for.cond.preheader ], [ %add55, %if.end51 ]
  %0 = load ptr, ptr %call2, align 8
  %1 = load ptr, ptr %str, align 8
  %idxprom = zext nneg i32 %pos.014 to i64
  %arrayidx = getelementptr i8, ptr %1, i64 %idxprom
  %2 = load i8, ptr %arrayidx, align 1
  %idxprom3 = zext i8 %2 to i64
  %arrayidx4 = getelementptr i16, ptr %0, i64 %idxprom3
  %3 = load i16, ptr %arrayidx4, align 2
  %4 = and i16 %3, 4096
  %tobool.not = icmp eq i16 %4, 0
  br i1 %tobool.not, label %inval, label %if.end7

if.end7:                                          ; preds = %for.body
  %5 = zext nneg i32 %pos.014 to i64
  %6 = getelementptr i8, ptr %1, i64 %5
  %arrayidx10 = getelementptr i8, ptr %6, i64 1
  %7 = load i8, ptr %arrayidx10, align 1
  %idxprom12 = zext i8 %7 to i64
  %arrayidx13 = getelementptr i16, ptr %0, i64 %idxprom12
  %8 = load i16, ptr %arrayidx13, align 2
  %9 = and i16 %8, 4096
  %tobool16.not = icmp eq i16 %9, 0
  br i1 %tobool16.not, label %inval, label %if.end18

if.end18:                                         ; preds = %if.end7
  %cmp19 = icmp eq i64 %indvars.iv, 5
  %10 = zext nneg i32 %pos.014 to i64
  %11 = getelementptr i8, ptr %1, i64 %10
  %arrayidx24 = getelementptr i8, ptr %11, i64 2
  %12 = load i8, ptr %arrayidx24, align 1
  br i1 %cmp19, label %if.then21, label %if.else

if.then21:                                        ; preds = %if.end18
  %cmp26.not = icmp eq i8 %12, 0
  br i1 %cmp26.not, label %if.end44, label %inval

if.else:                                          ; preds = %if.end18
  switch i8 %12, label %inval [
    i8 58, label %if.end44
    i8 45, label %if.end44
  ]

if.end44:                                         ; preds = %if.else, %if.else, %if.then21
  %call45 = call i32 @qemu_strtol(ptr noundef nonnull %arrayidx, ptr noundef nonnull %p, i32 noundef 16, ptr noundef nonnull %val) #10
  %cmp46 = icmp slt i32 %call45, 0
  %13 = load i64, ptr %val, align 8
  %cmp48 = icmp sgt i64 %13, 255
  %or.cond = select i1 %cmp46, i1 true, i1 %cmp48
  br i1 %or.cond, label %if.end44.inval_crit_edge, label %if.end51

if.end44.inval_crit_edge:                         ; preds = %if.end44
  %.pre = load ptr, ptr %str, align 8
  br label %inval

if.end51:                                         ; preds = %if.end44
  %conv52 = trunc i64 %13 to i8
  %arrayidx54 = getelementptr [6 x i8], ptr %call, i64 0, i64 %indvars.iv
  store i8 %conv52, ptr %arrayidx54, align 1
  %indvars.iv.next = add nuw nsw i64 %indvars.iv, 1
  %add55 = add nuw nsw i32 %pos.014, 3
  %exitcond.not = icmp eq i64 %indvars.iv.next, 6
  br i1 %exitcond.not, label %return.sink.split, label %for.body, !llvm.loop !5

inval:                                            ; preds = %if.else, %if.then21, %if.end7, %for.body, %if.end44.inval_crit_edge
  %14 = phi ptr [ %.pre, %if.end44.inval_crit_edge ], [ %1, %for.body ], [ %1, %if.end7 ], [ %1, %if.then21 ], [ %1, %if.else ]
  call void @error_set_from_qdev_prop_error(ptr noundef %errp, i32 noundef 22, ptr noundef %obj, ptr noundef %name, ptr noundef %14) #10
  br label %return.sink.split

return.sink.split:                                ; preds = %if.end51, %inval
  %15 = load ptr, ptr %str, align 8
  call void @g_free(ptr noundef %15) #10
  br label %return

return:                                           ; preds = %return.sink.split, %entry
  ret void
}